target datalayout = "e-m:e-p270:32:32-p271:32:32-p272:64:64-i64:64-i128:128-f80:128-n8:16:32:64-S128"
target triple = "x86_64-pc-linux-gnu"

%struct._attribute_pages_t = type { i32, ptr }
%struct._attribute_page_numbers_t = type { i32, ptr, ptr, ptr, i32 }

; Function Attrs: nounwind null_pointer_is_valid sspstrong uwtable
define hidden ptr @osd_lookup_attribute(i32 noundef %0, i32 noundef %1) #1 {
  %3 = alloca ptr, align 8
  %4 = alloca i32, align 4
  %5 = alloca i32, align 4
  %6 = alloca ptr, align 8
  %7 = alloca ptr, align 8
  %8 = alloca i32, align 4
  store i32 %0, ptr %4, align 4
  store i32 %1, ptr %5, align 4
  call void @llvm.lifetime.start.p0(i64 8, ptr %6) #6
  call void @llvm.lifetime.start.p0(i64 8, ptr %7) #6
  store ptr null, ptr %7, align 8
  store ptr @attribute_pages, ptr %6, align 8
  br label %9

9:                                                ; preds = %25, %2
  %10 = load ptr, ptr %6, align 8
  %11 = getelementptr inbounds nuw %struct._attribute_pages_t, ptr %10, i32 0, i32 1
  %12 = load ptr, ptr %11, align 8
  %13 = icmp ne ptr %12, null
  br i1 %13, label %14, label %28

14:                                               ; preds = %9
  %15 = load ptr, ptr %6, align 8
  %16 = getelementptr inbounds nuw %struct._attribute_pages_t, ptr %15, i32 0, i32 0
  %17 = load i32, ptr %16, align 8
  %18 = load i32, ptr %4, align 4
  %19 = icmp eq i32 %17, %18
  br i1 %19, label %20, label %24

20:                                               ; preds = %14
  %21 = load ptr, ptr %6, align 8
  %22 = getelementptr inbounds nuw %struct._attribute_pages_t, ptr %21, i32 0, i32 1
  %23 = load ptr, ptr %22, align 8
  store ptr %23, ptr %7, align 8
  br label %28

24:                                               ; preds = %14
  br label %25

25:                                               ; preds = %24
  %26 = load ptr, ptr %6, align 8
  %27 = getelementptr %struct._attribute_pages_t, ptr %26, i32 1
  store ptr %27, ptr %6, align 8
  br label %9, !llvm.loop !6

28:                                               ; preds = %20, %9
  %29 = load ptr, ptr %7, align 8
  %30 = icmp ne ptr %29, null
  br i1 %30, label %32, label %31

31:                                               ; preds = %28
  store ptr null, ptr %3, align 8
  store i32 1, ptr %8, align 4
  br label %57

32:                                               ; preds = %28
  br label %33

33:                                               ; preds = %46, %32
  %34 = load ptr, ptr %7, align 8
  %35 = getelementptr inbounds nuw %struct._attribute_page_numbers_t, ptr %34, i32 0, i32 1
  %36 = load ptr, ptr %35, align 8
  %37 = icmp ne ptr %36, null
  br i1 %37, label %38, label %49

38:                                               ; preds = %33
  %39 = load ptr, ptr %7, align 8
  %40 = getelementptr inbounds nuw %struct._attribute_page_numbers_t, ptr %39, i32 0, i32 0
  %41 = load i32, ptr %40, align 8
  %42 = load i32, ptr %5, align 4
  %43 = icmp eq i32 %41, %42
  br i1 %43, label %44, label %45

44:                                               ; preds = %38
  br label %49

45:                                               ; preds = %38
  br label %46

46:                                               ; preds = %45
  %47 = load ptr, ptr %7, align 8
  %48 = getelementptr %struct._attribute_page_numbers_t, ptr %47, i32 1
  store ptr %48, ptr %7, align 8
  br label %33, !llvm.loop !8

49:                                               ; preds = %44, %33
  %50 = load ptr, ptr %7, align 8
  %51 = getelementptr inbounds nuw %struct._attribute_page_numbers_t, ptr %50, i32 0, i32 1
  %52 = load ptr, ptr %51, align 8
  %53 = icmp ne ptr %52, null
  br i1 %53, label %55, label %54

54:                                               ; preds = %49
  store ptr null, ptr %3, align 8
  store i32 1, ptr %8, align 4
  br label %57

55:                                               ; preds = %49
  %56 = load ptr, ptr %7, align 8
  store ptr %56, ptr %3, align 8
  store i32 1, ptr %8, align 4
  br label %57

57:                                               ; preds = %55, %54, %31
  call void @llvm.lifetime.end.p0(i64 8, ptr %7) #6
  call void @llvm.lifetime.end.p0(i64 8, ptr %6) #6
  %58 = load ptr, ptr %3, align 8
  ret ptr %58
}