; Function Attrs: nofree norecurse nosync nounwind null_pointer_is_valid sspstrong memory(read, inaccessiblemem: none) uwtable
define hidden noundef ptr @osd_lookup_attribute(i32 noundef %0, i32 noundef %1) local_unnamed_addr #1 {
  %3 = icmp eq i32 %0, 1
  br i1 %3, label %.preheader, label %.lr.ph34

.lr.ph34:                                         ; preds = %2, %6
  %.0122233 = phi ptr [ %7, %6 ], [ @attribute_pages, %2 ]
  %4 = getelementptr i8, ptr %.0122233, i64 24
  %5 = load ptr, ptr %4, align 8
  %.not = icmp eq ptr %5, null
  br i1 %.not, label %.thread, label %6, !llvm.loop !6

6:                                                ; preds = %.lr.ph34
  %7 = getelementptr i8, ptr %.0122233, i64 16
  %8 = load i32, ptr %7, align 8
  %9 = icmp eq i32 %8, %0
  br i1 %9, label %.preheader, label %.lr.ph34, !llvm.loop !6

.preheader:                                       ; preds = %6, %2
  %.lcssa = phi ptr [ @user_object_info_attributes, %2 ], [ %5, %6 ]
  %10 = getelementptr inbounds nuw i8, ptr %.lcssa, i64 8
  %11 = load ptr, ptr %10, align 8
  %.not1623 = icmp eq ptr %11, null
  br i1 %.not1623, label %.thread, label %.lr.ph

.lr.ph:                                           ; preds = %.preheader, %14
  %.124 = phi ptr [ %15, %14 ], [ %.lcssa, %.preheader ]
  %12 = load i32, ptr %.124, align 8
  %13 = icmp eq i32 %12, %1
  br i1 %13, label %.thread, label %14

14:                                               ; preds = %.lr.ph
  %15 = getelementptr i8, ptr %.124, i64 40
  %16 = getelementptr i8, ptr %.124, i64 48
  %17 = load ptr, ptr %16, align 8
  %.not16 = icmp eq ptr %17, null
  br i1 %.not16, label %.thread, label %.lr.ph, !llvm.loop !8

.thread:                                          ; preds = %.lr.ph34, %.lr.ph, %14, %.preheader
  %.013 = phi ptr [ null, %.preheader ], [ %.124, %.lr.ph ], [ null, %14 ], [ null, %.lr.ph34 ]
  ret ptr %.013
}